target datalayout = "e-m:e-p270:32:32-p271:32:32-p272:64:64-i64:64-i128:128-f80:128-n8:16:32:64-S128"
target triple = "x86_64-pc-linux-gnu"

%struct.expert_field = type { i32, i32 }

@hf_ldp_tlv_flags_reserv = internal global i32 0, align 4
@hf_ldp_tlv_flags_pdr = internal global i32 0, align 4
@hf_ldp_tlv_flags_pbs = internal global i32 0, align 4
@hf_ldp_tlv_flags_cdr = internal global i32 0, align 4
@hf_ldp_tlv_flags_cbs = internal global i32 0, align 4
@hf_ldp_tlv_flags_ebs = internal global i32 0, align 4
@hf_ldp_tlv_flags_weight = internal global i32 0, align 4
@hf_ldp_tlv_frequency = internal global i32 0, align 4
@hf_ldp_tlv_weight = internal global i32 0, align 4
@hf_ldp_tlv_pdr = internal global i32 0, align 4
@hf_ldp_tlv_pbs = internal global i32 0, align 4
@hf_ldp_tlv_cdr = internal global i32 0, align 4
@hf_ldp_tlv_cbs = internal global i32 0, align 4
@hf_ldp_tlv_ebs = internal global i32 0, align 4
@ett_ldp_tlv_val = internal global i32 0, align 4
@ei_ldp_tlv_fec_len = internal global %struct.expert_field zeroinitializer, align 4
@.str.1083 = private unnamed_addr constant [68 x i8] c"Error processing Traffic Parameters TLV: length is %d, should be 24\00", align 1
@.str.1084 = private unnamed_addr constant [19 x i8] c"Traffic parameters\00", align 1
@.str.1085 = private unnamed_addr constant [23 x i8] c"Weight: Not applicable\00", align 1
@.str.1086 = private unnamed_addr constant [10 x i8] c"%.10g Bps\00", align 1
@.str.1087 = private unnamed_addr constant [12 x i8] c"%.10g Bytes\00", align 1

; Function Attrs: null_pointer_is_valid sspstrong uwtable
define internal void @dissect_tlv_traffic(ptr noundef %0, ptr noundef %1, i32 noundef %2, ptr noundef %3, i32 noundef %4) #0 {
  %6 = alloca ptr, align 8
  %7 = alloca ptr, align 8
  %8 = alloca i32, align 4
  %9 = alloca ptr, align 8
  %10 = alloca i32, align 4
  %11 = alloca ptr, align 8
  %12 = alloca i8, align 1
  %13 = alloca float, align 4
  %14 = alloca ptr, align 8
  %15 = alloca i32, align 4
  store ptr %0, ptr %6, align 8
  store ptr %1, ptr %7, align 8
  store i32 %2, ptr %8, align 4
  store ptr %3, ptr %9, align 8
  store i32 %4, ptr %10, align 4
  call void @llvm.lifetime.start.p0(i64 8, ptr %11) #7
  call void @llvm.lifetime.start.p0(i64 1, ptr %12) #7
  call void @llvm.lifetime.start.p0(i64 4, ptr %13) #7
  call void @llvm.lifetime.start.p0(i64 8, ptr %14) #7
  %16 = load i32, ptr %10, align 4
  %17 = icmp ne i32 %16, 24
  br i1 %17, label %18, label %26

18:                                               ; preds = %5
  %19 = load ptr, ptr %9, align 8
  %20 = load ptr, ptr %7, align 8
  %21 = load ptr, ptr %6, align 8
  %22 = load i32, ptr %8, align 4
  %23 = load i32, ptr %10, align 4
  %24 = load i32, ptr %10, align 4
  %25 = call ptr (ptr, ptr, ptr, ptr, i32, i32, ptr, ...) @proto_tree_add_expert_format(ptr noundef %19, ptr noundef %20, ptr noundef @ei_ldp_tlv_fec_len, ptr noundef %21, i32 noundef %22, i32 noundef %23, ptr noundef @.str.1083, i32 noundef %24)
  store i32 1, ptr %15, align 4
  br label %167

26:                                               ; preds = %5
  %27 = load ptr, ptr %9, align 8
  %28 = load ptr, ptr %6, align 8
  %29 = load i32, ptr %8, align 4
  %30 = load i32, ptr %10, align 4
  %31 = load i32, ptr @ett_ldp_tlv_val, align 4
  %32 = call ptr @proto_tree_add_subtree(ptr noundef %27, ptr noundef %28, i32 noundef %29, i32 noundef %30, i32 noundef %31, ptr noundef null, ptr noundef @.str.1084)
  store ptr %32, ptr %11, align 8
  %33 = load ptr, ptr %11, align 8
  %34 = icmp ne ptr %33, null
  br i1 %34, label %35, label %166

35:                                               ; preds = %26
  %36 = load ptr, ptr %11, align 8
  %37 = load i32, ptr @hf_ldp_tlv_flags_reserv, align 4
  %38 = load ptr, ptr %6, align 8
  %39 = load i32, ptr %8, align 4
  %40 = call ptr @proto_tree_add_item(ptr noundef %36, i32 noundef %37, ptr noundef %38, i32 noundef %39, i32 noundef 1, i32 noundef 0)
  %41 = load ptr, ptr %11, align 8
  %42 = load i32, ptr @hf_ldp_tlv_flags_weight, align 4
  %43 = load ptr, ptr %6, align 8
  %44 = load i32, ptr %8, align 4
  %45 = call ptr @proto_tree_add_item(ptr noundef %41, i32 noundef %42, ptr noundef %43, i32 noundef %44, i32 noundef 1, i32 noundef 0)
  %46 = load ptr, ptr %11, align 8
  %47 = load i32, ptr @hf_ldp_tlv_flags_ebs, align 4
  %48 = load ptr, ptr %6, align 8
  %49 = load i32, ptr %8, align 4
  %50 = call ptr @proto_tree_add_item(ptr noundef %46, i32 noundef %47, ptr noundef %48, i32 noundef %49, i32 noundef 1, i32 noundef 0)
  %51 = load ptr, ptr %11, align 8
  %52 = load i32, ptr @hf_ldp_tlv_flags_cbs, align 4
  %53 = load ptr, ptr %6, align 8
  %54 = load i32, ptr %8, align 4
  %55 = call ptr @proto_tree_add_item(ptr noundef %51, i32 noundef %52, ptr noundef %53, i32 noundef %54, i32 noundef 1, i32 noundef 0)
  %56 = load ptr, ptr %11, align 8
  %57 = load i32, ptr @hf_ldp_tlv_flags_cdr, align 4
  %58 = load ptr, ptr %6, align 8
  %59 = load i32, ptr %8, align 4
  %60 = call ptr @proto_tree_add_item(ptr noundef %56, i32 noundef %57, ptr noundef %58, i32 noundef %59, i32 noundef 1, i32 noundef 0)
  %61 = load ptr, ptr %11, align 8
  %62 = load i32, ptr @hf_ldp_tlv_flags_pbs, align 4
  %63 = load ptr, ptr %6, align 8
  %64 = load i32, ptr %8, align 4
  %65 = call ptr @proto_tree_add_item(ptr noundef %61, i32 noundef %62, ptr noundef %63, i32 noundef %64, i32 noundef 1, i32 noundef 0)
  %66 = load ptr, ptr %11, align 8
  %67 = load i32, ptr @hf_ldp_tlv_flags_pdr, align 4
  %68 = load ptr, ptr %6, align 8
  %69 = load i32, ptr %8, align 4
  %70 = call ptr @proto_tree_add_item(ptr noundef %66, i32 noundef %67, ptr noundef %68, i32 noundef %69, i32 noundef 1, i32 noundef 0)
  %71 = load i32, ptr %8, align 4
  %72 = add i32 %71, 1
  store i32 %72, ptr %8, align 4
  %73 = load ptr, ptr %11, align 8
  %74 = load i32, ptr @hf_ldp_tlv_frequency, align 4
  %75 = load ptr, ptr %6, align 8
  %76 = load i32, ptr %8, align 4
  %77 = call ptr @proto_tree_add_item(ptr noundef %73, i32 noundef %74, ptr noundef %75, i32 noundef %76, i32 noundef 1, i32 noundef 0)
  %78 = load i32, ptr %8, align 4
  %79 = add i32 %78, 1
  store i32 %79, ptr %8, align 4
  %80 = load i32, ptr %8, align 4
  %81 = add i32 %80, 1
  store i32 %81, ptr %8, align 4
  %82 = load ptr, ptr %11, align 8
  %83 = load i32, ptr @hf_ldp_tlv_weight, align 4
  %84 = load ptr, ptr %6, align 8
  %85 = load i32, ptr %8, align 4
  %86 = call ptr @proto_tree_add_item(ptr noundef %82, i32 noundef %83, ptr noundef %84, i32 noundef %85, i32 noundef 1, i32 noundef 0)
  store ptr %86, ptr %14, align 8
  %87 = load ptr, ptr %6, align 8
  %88 = load i32, ptr %8, align 4
  %89 = call zeroext i8 @tvb_get_uint8(ptr noundef %87, i32 noundef %88)
  store i8 %89, ptr %12, align 1
  %90 = load i8, ptr %12, align 1
  %91 = zext i8 %90 to i32
  %92 = icmp eq i32 %91, 0
  br i1 %92, label %93, label %95

93:                                               ; preds = %35
  %94 = load ptr, ptr %14, align 8
  call void (ptr, ptr, ...) @proto_item_set_text(ptr noundef %94, ptr noundef @.str.1085)
  br label %95

95:                                               ; preds = %93, %35
  %96 = load i32, ptr %8, align 4
  %97 = add i32 %96, 1
  store i32 %97, ptr %8, align 4
  %98 = load ptr, ptr %6, align 8
  %99 = load i32, ptr %8, align 4
  %100 = call float @tvb_get_ntohieee_float(ptr noundef %98, i32 noundef %99)
  store float %100, ptr %13, align 4
  %101 = load ptr, ptr %11, align 8
  %102 = load i32, ptr @hf_ldp_tlv_pdr, align 4
  %103 = load ptr, ptr %6, align 8
  %104 = load i32, ptr %8, align 4
  %105 = load float, ptr %13, align 4
  %106 = fpext float %105 to double
  %107 = load float, ptr %13, align 4
  %108 = fpext float %107 to double
  %109 = call ptr (ptr, i32, ptr, i32, i32, double, ptr, ...) @proto_tree_add_double_format_value(ptr noundef %101, i32 noundef %102, ptr noundef %103, i32 noundef %104, i32 noundef 4, double noundef %106, ptr noundef @.str.1086, double noundef %108)
  %110 = load i32, ptr %8, align 4
  %111 = add i32 %110, 4
  store i32 %111, ptr %8, align 4
  %112 = load ptr, ptr %6, align 8
  %113 = load i32, ptr %8, align 4
  %114 = call float @tvb_get_ntohieee_float(ptr noundef %112, i32 noundef %113)
  store float %114, ptr %13, align 4
  %115 = load ptr, ptr %11, align 8
  %116 = load i32, ptr @hf_ldp_tlv_pbs, align 4
  %117 = load ptr, ptr %6, align 8
  %118 = load i32, ptr %8, align 4
  %119 = load float, ptr %13, align 4
  %120 = fpext float %119 to double
  %121 = load float, ptr %13, align 4
  %122 = fpext float %121 to double
  %123 = call ptr (ptr, i32, ptr, i32, i32, double, ptr, ...) @proto_tree_add_double_format_value(ptr noundef %115, i32 noundef %116, ptr noundef %117, i32 noundef %118, i32 noundef 4, double noundef %120, ptr noundef @.str.1087, double noundef %122)
  %124 = load i32, ptr %8, align 4
  %125 = add i32 %124, 4
  store i32 %125, ptr %8, align 4
  %126 = load ptr, ptr %6, align 8
  %127 = load i32, ptr %8, align 4
  %128 = call float @tvb_get_ntohieee_float(ptr noundef %126, i32 noundef %127)
  store float %128, ptr %13, align 4
  %129 = load ptr, ptr %11, align 8
  %130 = load i32, ptr @hf_ldp_tlv_cdr, align 4
  %131 = load ptr, ptr %6, align 8
  %132 = load i32, ptr %8, align 4
  %133 = load float, ptr %13, align 4
  %134 = fpext float %133 to double
  %135 = load float, ptr %13, align 4
  %136 = fpext float %135 to double
  %137 = call ptr (ptr, i32, ptr, i32, i32, double, ptr, ...) @proto_tree_add_double_format_value(ptr noundef %129, i32 noundef %130, ptr noundef %131, i32 noundef %132, i32 noundef 4, double noundef %134, ptr noundef @.str.1086, double noundef %136)
  %138 = load i32, ptr %8, align 4
  %139 = add i32 %138, 4
  store i32 %139, ptr %8, align 4
  %140 = load ptr, ptr %6, align 8
  %141 = load i32, ptr %8, align 4
  %142 = call float @tvb_get_ntohieee_float(ptr noundef %140, i32 noundef %141)
  store float %142, ptr %13, align 4
  %143 = load ptr, ptr %11, align 8
  %144 = load i32, ptr @hf_ldp_tlv_cbs, align 4
  %145 = load ptr, ptr %6, align 8
  %146 = load i32, ptr %8, align 4
  %147 = load float, ptr %13, align 4
  %148 = fpext float %147 to double
  %149 = load float, ptr %13, align 4
  %150 = fpext float %149 to double
  %151 = call ptr (ptr, i32, ptr, i32, i32, double, ptr, ...) @proto_tree_add_double_format_value(ptr noundef %143, i32 noundef %144, ptr noundef %145, i32 noundef %146, i32 noundef 4, double noundef %148, ptr noundef @.str.1087, double noundef %150)
  %152 = load i32, ptr %8, align 4
  %153 = add i32 %152, 4
  store i32 %153, ptr %8, align 4
  %154 = load ptr, ptr %6, align 8
  %155 = load i32, ptr %8, align 4
  %156 = call float @tvb_get_ntohieee_float(ptr noundef %154, i32 noundef %155)
  store float %156, ptr %13, align 4
  %157 = load ptr, ptr %11, align 8
  %158 = load i32, ptr @hf_ldp_tlv_ebs, align 4
  %159 = load ptr, ptr %6, align 8
  %160 = load i32, ptr %8, align 4
  %161 = load float, ptr %13, align 4
  %162 = fpext float %161 to double
  %163 = load float, ptr %13, align 4
  %164 = fpext float %163 to double
  %165 = call ptr (ptr, i32, ptr, i32, i32, double, ptr, ...) @proto_tree_add_double_format_value(ptr noundef %157, i32 noundef %158, ptr noundef %159, i32 noundef %160, i32 noundef 4, double noundef %162, ptr noundef @.str.1087, double noundef %164)
  br label %166

166:                                              ; preds = %95, %26
  store i32 0, ptr %15, align 4
  br label %167

167:                                              ; preds = %166, %18
  call void @llvm.lifetime.end.p0(i64 8, ptr %14) #7
  call void @llvm.lifetime.end.p0(i64 4, ptr %13) #7
  call void @llvm.lifetime.end.p0(i64 1, ptr %12) #7
  call void @llvm.lifetime.end.p0(i64 8, ptr %11) #7
  %168 = load i32, ptr %15, align 4
  switch i32 %168, label %170 [
    i32 0, label %169
    i32 1, label %169
  ]

169:                                              ; preds = %167, %167
  ret void

170:                                              ; preds = %167
  unreachable
}