; Function Attrs: null_pointer_is_valid sspstrong uwtable
define internal fastcc void @dissect_tlv_traffic(ptr noundef %0, ptr noundef %1, i32 noundef %2, ptr noundef %3, i32 noundef range(i32 0, 2147483644) %4) unnamed_addr #0 {
  %.not = icmp eq i32 %4, 24
  br i1 %.not, label %8, label %6

6:                                                ; preds = %5
  %7 = tail call ptr (ptr, ptr, ptr, ptr, i32, i32, ptr, ...) @proto_tree_add_expert_format(ptr noundef %3, ptr noundef %1, ptr noundef nonnull @ei_ldp_tlv_fec_len, ptr noundef %0, i32 noundef %2, i32 noundef %4, ptr noundef nonnull @.str.1083, i32 noundef %4)
  br label %61

8:                                                ; preds = %5
  %9 = load i32, ptr @ett_ldp_tlv_val, align 4
  %10 = tail call ptr @proto_tree_add_subtree(ptr noundef %3, ptr noundef %0, i32 noundef %2, i32 noundef 24, i32 noundef %9, ptr noundef null, ptr noundef nonnull @.str.1084)
  %.not86 = icmp eq ptr %10, null
  br i1 %.not86, label %61, label %11

11:                                               ; preds = %8
  %12 = load i32, ptr @hf_ldp_tlv_flags_reserv, align 4
  %13 = tail call ptr @proto_tree_add_item(ptr noundef nonnull %10, i32 noundef %12, ptr noundef %0, i32 noundef %2, i32 noundef 1, i32 noundef 0)
  %14 = load i32, ptr @hf_ldp_tlv_flags_weight, align 4
  %15 = tail call ptr @proto_tree_add_item(ptr noundef nonnull %10, i32 noundef %14, ptr noundef %0, i32 noundef %2, i32 noundef 1, i32 noundef 0)
  %16 = load i32, ptr @hf_ldp_tlv_flags_ebs, align 4
  %17 = tail call ptr @proto_tree_add_item(ptr noundef nonnull %10, i32 noundef %16, ptr noundef %0, i32 noundef %2, i32 noundef 1, i32 noundef 0)
  %18 = load i32, ptr @hf_ldp_tlv_flags_cbs, align 4
  %19 = tail call ptr @proto_tree_add_item(ptr noundef nonnull %10, i32 noundef %18, ptr noundef %0, i32 noundef %2, i32 noundef 1, i32 noundef 0)
  %20 = load i32, ptr @hf_ldp_tlv_flags_cdr, align 4
  %21 = tail call ptr @proto_tree_add_item(ptr noundef nonnull %10, i32 noundef %20, ptr noundef %0, i32 noundef %2, i32 noundef 1, i32 noundef 0)
  %22 = load i32, ptr @hf_ldp_tlv_flags_pbs, align 4
  %23 = tail call ptr @proto_tree_add_item(ptr noundef nonnull %10, i32 noundef %22, ptr noundef %0, i32 noundef %2, i32 noundef 1, i32 noundef 0)
  %24 = load i32, ptr @hf_ldp_tlv_flags_pdr, align 4
  %25 = tail call ptr @proto_tree_add_item(ptr noundef nonnull %10, i32 noundef %24, ptr noundef %0, i32 noundef %2, i32 noundef 1, i32 noundef 0)
  %26 = add i32 %2, 1
  %27 = load i32, ptr @hf_ldp_tlv_frequency, align 4
  %28 = tail call ptr @proto_tree_add_item(ptr noundef nonnull %10, i32 noundef %27, ptr noundef %0, i32 noundef %26, i32 noundef 1, i32 noundef 0)
  %29 = add i32 %2, 3
  %30 = load i32, ptr @hf_ldp_tlv_weight, align 4
  %31 = tail call ptr @proto_tree_add_item(ptr noundef nonnull %10, i32 noundef %30, ptr noundef %0, i32 noundef %29, i32 noundef 1, i32 noundef 0)
  %32 = tail call zeroext i8 @tvb_get_uint8(ptr noundef %0, i32 noundef %29)
  %33 = icmp eq i8 %32, 0
  br i1 %33, label %34, label %35

34:                                               ; preds = %11
  tail call void (ptr, ptr, ...) @proto_item_set_text(ptr noundef %31, ptr noundef nonnull @.str.1085)
  br label %35

35:                                               ; preds = %34, %11
  %36 = add i32 %2, 4
  %37 = tail call float @tvb_get_ntohieee_float(ptr noundef %0, i32 noundef %36)
  %38 = load i32, ptr @hf_ldp_tlv_pdr, align 4
  %39 = fpext float %37 to double
  %40 = tail call ptr (ptr, i32, ptr, i32, i32, double, ptr, ...) @proto_tree_add_double_format_value(ptr noundef nonnull %10, i32 noundef %38, ptr noundef %0, i32 noundef %36, i32 noundef 4, double noundef %39, ptr noundef nonnull @.str.1086, double noundef %39)
  %41 = add i32 %2, 8
  %42 = tail call float @tvb_get_ntohieee_float(ptr noundef %0, i32 noundef %41)
  %43 = load i32, ptr @hf_ldp_tlv_pbs, align 4
  %44 = fpext float %42 to double
  %45 = tail call ptr (ptr, i32, ptr, i32, i32, double, ptr, ...) @proto_tree_add_double_format_value(ptr noundef nonnull %10, i32 noundef %43, ptr noundef %0, i32 noundef %41, i32 noundef 4, double noundef %44, ptr noundef nonnull @.str.1087, double noundef %44)
  %46 = add i32 %2, 12
  %47 = tail call float @tvb_get_ntohieee_float(ptr noundef %0, i32 noundef %46)
  %48 = load i32, ptr @hf_ldp_tlv_cdr, align 4
  %49 = fpext float %47 to double
  %50 = tail call ptr (ptr, i32, ptr, i32, i32, double, ptr, ...) @proto_tree_add_double_format_value(ptr noundef nonnull %10, i32 noundef %48, ptr noundef %0, i32 noundef %46, i32 noundef 4, double noundef %49, ptr noundef nonnull @.str.1086, double noundef %49)
  %51 = add i32 %2, 16
  %52 = tail call float @tvb_get_ntohieee_float(ptr noundef %0, i32 noundef %51)
  %53 = load i32, ptr @hf_ldp_tlv_cbs, align 4
  %54 = fpext float %52 to double
  %55 = tail call ptr (ptr, i32, ptr, i32, i32, double, ptr, ...) @proto_tree_add_double_format_value(ptr noundef nonnull %10, i32 noundef %53, ptr noundef %0, i32 noundef %51, i32 noundef 4, double noundef %54, ptr noundef nonnull @.str.1087, double noundef %54)
  %56 = add i32 %2, 20
  %57 = tail call float @tvb_get_ntohieee_float(ptr noundef %0, i32 noundef %56)
  %58 = load i32, ptr @hf_ldp_tlv_ebs, align 4
  %59 = fpext float %57 to double
  %60 = tail call ptr (ptr, i32, ptr, i32, i32, double, ptr, ...) @proto_tree_add_double_format_value(ptr noundef nonnull %10, i32 noundef %58, ptr noundef %0, i32 noundef %56, i32 noundef 4, double noundef %59, ptr noundef nonnull @.str.1087, double noundef %59)
  br label %61

61:                                               ; preds = %8, %35, %6
  ret void
}